Certificate:
    Data:
        Version: 3 (0x2)
        Serial Number: 1 (0x1)
    Signature Algorithm: sha256WithRSAEncryption
        Issuer: CN=minikubeCA
        Validity
            Not Before: Apr 25 10:07:38 2019 GMT
            Not After : Jan 19 10:07:38 2022 GMT
        Subject: O=tugraz, O=iaik, CN=deutschmann
        Subject Public Key Info:
            Public Key Algorithm: rsaEncryption
                Public-Key: (2048 bit)
                Modulus:
                    00:b7:15:c2:2e:09:22:2e:d2:1d:09:89:bc:55:de:
                    d5:cf:88:e8:6f:0d:7d:dc:15:b8:e2:6f:62:60:8c:
                    76:30:c3:81:43:a2:a9:8a:ed:45:99:a8:5e:e7:ec:
                    c6:9c:ef:f5:e8:b4:48:38:ea:3b:96:aa:c0:f6:c9:
                    22:26:b2:5b:7c:d6:fd:a3:8e:fe:8c:8b:3a:f0:76:
                    b1:44:bc:b0:c9:ce:10:82:28:b7:5e:89:6e:92:78:
                    b2:22:be:1a:bc:f9:87:73:51:89:8d:ef:c2:f3:1c:
                    be:ca:ab:a1:15:8a:c0:b0:01:c7:ed:96:12:c4:5d:
                    43:d2:89:79:80:e0:ab:16:09:7f:ef:a6:16:68:30:
                    02:e8:fa:96:f9:19:62:2a:97:98:6a:d8:24:ba:0d:
                    a8:c8:dc:aa:e4:4c:d5:db:aa:a1:77:4b:9b:f0:60:
                    df:3a:8c:35:d1:2c:c1:8a:d4:92:00:95:21:a8:cf:
                    34:c9:fc:53:e2:c2:19:67:91:9d:53:b1:d3:81:93:
                    e4:d7:f4:de:1d:9b:2e:07:36:c0:f2:82:49:f6:50:
                    e3:b6:4c:49:3a:1f:83:9b:f4:53:43:19:04:68:0e:
                    82:37:f7:93:16:ca:38:18:84:e4:0d:6f:e9:5d:d8:
                    b3:a2:e2:86:d1:67:3f:68:2b:22:d9:5f:f9:e3:85:
                    0f:eb
                Exponent: 65537 (0x10001)
        X509v3 extensions:
            X509v3 Subject Key Identifier: 
                DD:4A:89:C0:1C:8C:DA:BA:A1:DC:7D:21:2B:39:1E:92:94:C4:18:36
            X509v3 Authority Key Identifier: 
                DirName:/CN=minikubeCA
                serial:01

            X509v3 Basic Constraints: 
                CA:FALSE
            X509v3 Key Usage: 
                Digital Signature, Key Encipherment
    Signature Algorithm: sha256WithRSAEncryption
         2c:63:5e:c3:e8:08:7d:2e:b7:0b:e6:1c:6d:4d:7c:f7:05:e9:
         f4:a4:0d:69:43:bf:67:82:0d:38:f1:10:61:11:db:2f:64:8c:
         c3:84:79:db:05:aa:88:25:a2:30:03:39:f2:fd:e9:43:a2:d6:
         2a:0a:ab:b6:a7:22:83:3f:50:e2:9b:42:f8:7b:c9:42:53:68:
         93:fc:c0:32:72:29:ab:bd:3b:5f:ad:2e:44:80:8a:b4:69:f8:
         91:4a:3b:3b:92:df:a6:72:d7:62:22:d4:27:4c:35:eb:6c:98:
         7e:17:44:d6:2b:15:51:f8:f1:df:71:05:2e:fa:4d:08:63:6f:
         fd:fc:8b:dc:bc:af:6c:05:ee:f3:69:fd:3a:db:55:72:a2:ff:
         c8:46:c8:b4:11:5c:76:b7:1f:0d:75:d5:61:0a:62:91:11:72:
         6b:34:2a:a9:59:3a:ab:eb:e9:6e:d7:e2:cf:4e:ec:e0:87:03:
         11:d2:89:51:58:5a:5c:ec:25:d7:aa:fb:55:8f:84:5c:2f:89:
         33:8f:35:ed:5a:f4:3a:73:ec:99:4f:be:a2:10:57:29:d2:1a:
         96:5e:99:5e:c7:16:5d:c4:ca:40:ec:89:70:d3:bc:09:4c:58:
         37:5a:ff:d1:cd:f3:20:6b:3d:85:bf:e8:a3:d5:36:66:9f:6b:
         c4:fd:b4:d1
-----BEGIN CERTIFICATE-----
MIIDKDCCAhCgAwIBAgIBATANBgkqhkiG9w0BAQsFADAVMRMwEQYDVQQDEwptaW5p
a3ViZUNBMB4XDTE5MDQyNTEwMDczOFoXDTIyMDExOTEwMDczOFowNjEPMA0GA1UE
CgwGdHVncmF6MQ0wCwYDVQQKDARpYWlrMRQwEgYDVQQDDAtkZXV0c2NobWFubjCC
ASIwDQYJKoZIhvcNAQEBBQADggEPADCCAQoCggEBALcVwi4JIi7SHQmJvFXe1c+I
6G8NfdwVuOJvYmCMdjDDgUOiqYrtRZmoXufsxpzv9ei0SDjqO5aqwPbJIiayW3zW
/aOO/oyLOvB2sUS8sMnOEIIot16JbpJ4siK+Grz5h3NRiY3vwvMcvsqroRWKwLAB
x+2WEsRdQ9KJeYDgqxYJf++mFmgwAuj6lvkZYiqXmGrYJLoNqMjcquRM1duqoXdL
m/Bg3zqMNdEswYrUkgCVIajPNMn8U+LCGWeRnVOx04GT5Nf03h2bLgc2wPKCSfZQ
47ZMSTofg5v0U0MZBGgOgjf3kxbKOBiE5A1v6V3Ys6LihtFnP2grItlf+eOFD+sC
AwEAAaNiMGAwHQYDVR0OBBYEFN1KicAcjNq6odx9ISs5HpKUxBg2MCcGA1UdIwQg
MB6hGaQXMBUxEzARBgNVBAMTCm1pbmlrdWJlQ0GCAQEwCQYDVR0TBAIwADALBgNV
HQ8EBAMCBaAwDQYJKoZIhvcNAQELBQADggEBACxjXsPoCH0utwvmHG1NfPcF6fSk
DWlDv2eCDTjxEGER2y9kjMOEedsFqoglojADOfL96UOi1ioKq7anIoM/UOKbQvh7
yUJTaJP8wDJyKau9O1+tLkSAirRp+JFKOzuS36Zy12Ii1CdMNetsmH4XRNYrFVH4
8d9xBS76TQhjb/38i9y8r2wF7vNp/TrbVXKi/8hGyLQRXHa3Hw111WEKYpERcms0
KqlZOqvr6W7X4s9O7OCHAxHSiVFYWlzsJdeq+1WPhFwviTOPNe1a9Dpz7JlPvqIQ
VynSGpZemV7HFl3EykDsiXDTvAlMWDda/9HN8yBrPYW/6KPVNmafa8T9tNE=
-----END CERTIFICATE-----
