Certificate:
    Data:
        Version: 3 (0x2)
        Serial Number: 2 (0x2)
    Signature Algorithm: sha256WithRSAEncryption
        Issuer: CN=minikubeCA
        Validity
            Not Before: Apr 25 10:33:08 2019 GMT
            Not After : Jan 19 10:33:08 2022 GMT
        Subject: O=tugraz, O=iaik, CN=deutschmann
        Subject Public Key Info:
            Public Key Algorithm: rsaEncryption
                Public-Key: (2048 bit)
                Modulus:
                    00:c1:a0:3d:ac:f0:97:5c:2b:ce:06:25:b9:bd:33:
                    c0:ee:59:23:66:a0:14:2e:2c:15:c3:d0:77:f4:21:
                    3a:bc:e2:14:e7:da:d6:53:c4:fa:bd:43:53:45:b9:
                    0c:94:ce:73:5e:22:dc:71:ad:74:06:8d:37:80:51:
                    8e:ca:fa:f9:e0:65:e7:45:88:17:e3:da:db:ea:3d:
                    02:dd:54:2c:6d:52:cf:c7:5b:cb:ee:c9:a9:2a:46:
                    d7:13:fc:16:53:bb:69:4c:51:a5:2a:6d:51:54:95:
                    9b:46:1a:02:d9:33:3b:ae:9f:63:00:4d:5c:6b:6f:
                    95:53:17:47:22:9b:3a:2d:cc:46:a6:a4:72:81:0f:
                    62:b9:b7:da:47:26:13:48:fe:39:5c:e8:70:82:02:
                    7d:4a:73:02:a4:00:3b:25:f8:11:e9:50:87:dc:f1:
                    78:25:cd:33:4e:39:f2:4a:6b:75:68:28:cc:e0:0f:
                    f8:cc:f5:6e:82:5e:bb:94:28:fd:0c:c0:b6:21:4e:
                    0e:10:b1:c4:31:cd:00:6a:55:47:34:17:7b:a9:d6:
                    fc:1f:ec:42:cc:a1:2f:c5:06:67:fe:21:06:80:51:
                    69:01:68:82:1b:3f:96:98:3a:c9:e3:88:75:7c:3e:
                    0c:c7:ed:cd:2a:9f:d3:04:6b:d0:de:9b:4a:0d:6b:
                    da:bd
                Exponent: 65537 (0x10001)
        X509v3 extensions:
            X509v3 Subject Key Identifier: 
                C4:D5:EE:F7:B0:AE:01:DC:1C:11:18:BB:53:A8:32:2D:05:91:96:29
            X509v3 Authority Key Identifier: 
                DirName:/CN=minikubeCA
                serial:01

            X509v3 Basic Constraints: 
                CA:FALSE
            X509v3 Key Usage: 
                Digital Signature, Key Encipherment
    Signature Algorithm: sha256WithRSAEncryption
         4c:50:9f:f8:e9:c5:58:00:7f:e4:08:ea:de:1a:74:a6:30:ed:
         00:f0:32:c3:98:92:db:bb:e1:5f:02:dc:f7:e1:61:6a:c6:68:
         cc:af:3a:10:c2:c1:ed:a6:40:1c:b9:ff:7f:13:f5:97:70:ec:
         71:fb:e5:be:64:bc:a8:09:bf:be:9d:be:9e:5e:ef:21:d0:e9:
         4f:9a:f3:f4:45:0c:2a:77:5d:e4:bf:9e:b3:fc:e8:d8:07:05:
         7e:ff:2a:93:60:fc:c2:0f:1f:e7:45:a9:d4:e5:68:58:2e:9f:
         a1:f4:94:d6:5a:dd:f3:99:d4:f9:7b:9a:5c:4f:fb:e3:ee:5d:
         c8:ce:d9:f3:88:3c:8d:1f:38:e5:aa:eb:e5:a2:98:59:1b:1a:
         68:32:80:41:2f:b8:c6:cf:31:0c:df:cb:28:fd:93:c4:41:ff:
         62:2b:e2:de:68:04:a5:64:9e:f2:22:e3:fc:df:ec:ba:d6:9d:
         2b:1c:e9:1c:b3:9e:b2:4d:50:30:06:32:82:e0:d6:d9:f4:37:
         20:a4:bb:fc:74:0c:eb:90:f4:a6:42:f0:d5:3e:ff:ec:c8:d2:
         7e:9c:5a:f6:b8:1f:7a:6d:f6:f2:7d:d0:97:19:58:2a:0b:4a:
         76:a9:73:fb:af:01:bd:a9:70:b0:3a:f0:9a:9a:e7:31:58:f7:
         81:5f:19:8c
-----BEGIN CERTIFICATE-----
MIIDKDCCAhCgAwIBAgIBAjANBgkqhkiG9w0BAQsFADAVMRMwEQYDVQQDEwptaW5p
a3ViZUNBMB4XDTE5MDQyNTEwMzMwOFoXDTIyMDExOTEwMzMwOFowNjEPMA0GA1UE
CgwGdHVncmF6MQ0wCwYDVQQKDARpYWlrMRQwEgYDVQQDDAtkZXV0c2NobWFubjCC
ASIwDQYJKoZIhvcNAQEBBQADggEPADCCAQoCggEBAMGgPazwl1wrzgYlub0zwO5Z
I2agFC4sFcPQd/QhOrziFOfa1lPE+r1DU0W5DJTOc14i3HGtdAaNN4BRjsr6+eBl
50WIF+Pa2+o9At1ULG1Sz8dby+7JqSpG1xP8FlO7aUxRpSptUVSVm0YaAtkzO66f
YwBNXGtvlVMXRyKbOi3MRqakcoEPYrm32kcmE0j+OVzocIICfUpzAqQAOyX4EelQ
h9zxeCXNM0458kprdWgozOAP+Mz1boJeu5Qo/QzAtiFODhCxxDHNAGpVRzQXe6nW
/B/sQsyhL8UGZ/4hBoBRaQFoghs/lpg6yeOIdXw+DMftzSqf0wRr0N6bSg1r2r0C
AwEAAaNiMGAwHQYDVR0OBBYEFMTV7vewrgHcHBEYu1OoMi0FkZYpMCcGA1UdIwQg
MB6hGaQXMBUxEzARBgNVBAMTCm1pbmlrdWJlQ0GCAQEwCQYDVR0TBAIwADALBgNV
HQ8EBAMCBaAwDQYJKoZIhvcNAQELBQADggEBAExQn/jpxVgAf+QI6t4adKYw7QDw
MsOYktu74V8C3PfhYWrGaMyvOhDCwe2mQBy5/38T9Zdw7HH75b5kvKgJv76dvp5e
7yHQ6U+a8/RFDCp3XeS/nrP86NgHBX7/KpNg/MIPH+dFqdTlaFgun6H0lNZa3fOZ
1Pl7mlxP++PuXcjO2fOIPI0fOOWq6+WimFkbGmgygEEvuMbPMQzfyyj9k8RB/2Ir
4t5oBKVknvIi4/zf7LrWnSsc6RyznrJNUDAGMoLg1tn0NyCku/x0DOuQ9KZC8NU+
/+zI0n6cWva4H3pt9vJ90JcZWCoLSnapc/uvAb2pcLA68Jqa5zFY94FfGYw=
-----END CERTIFICATE-----
